target datalayout = "e-m:e-p270:32:32-p271:32:32-p272:64:64-i64:64-i128:128-f80:128-n8:16:32:64-S128"
target triple = "x86_64-pc-linux-gnu"

%struct.APK_DATA_st = type { ptr, i64, i32 }

@mainctx = internal global ptr null, align 8
@.str.28 = private unnamed_addr constant [34 x i8] c"../openssl/test/evp_extra_test2.c\00", align 1
@.str.69 = private unnamed_addr constant [2 x i8] c"0\00", align 1
@.str.182 = private unnamed_addr constant [75 x i8] c"pkey = d2i_AutoPrivateKey_ex(NULL, &pdata, keydata[0].size, mainctx, NULL)\00", align 1
@.str.183 = private unnamed_addr constant [49 x i8] c"EVP_PKEY_todata(NULL, EVP_PKEY_KEYPAIR, &params)\00", align 1
@.str.184 = private unnamed_addr constant [46 x i8] c"EVP_PKEY_todata(pkey, EVP_PKEY_KEYPAIR, NULL)\00", align 1

; Function Attrs: nounwind uwtable
define internal i32 @test_pkey_todata_null() #0 {
  %1 = alloca ptr, align 8
  %2 = alloca ptr, align 8
  %3 = alloca i32, align 4
  %4 = alloca ptr, align 8
  call void @llvm.lifetime.start.p0(i64 8, ptr %1) #7
  store ptr null, ptr %1, align 8, !tbaa !35
  call void @llvm.lifetime.start.p0(i64 8, ptr %2) #7
  store ptr null, ptr %2, align 8, !tbaa !13
  call void @llvm.lifetime.start.p0(i64 4, ptr %3) #7
  store i32 0, ptr %3, align 4, !tbaa !11
  call void @llvm.lifetime.start.p0(i64 8, ptr %4) #7
  %5 = load ptr, ptr @keydata, align 16, !tbaa !17
  store ptr %5, ptr %4, align 8, !tbaa !21
  %6 = load i64, ptr getelementptr inbounds nuw (%struct.APK_DATA_st, ptr @keydata, i32 0, i32 1), align 8, !tbaa !22
  %7 = load ptr, ptr @mainctx, align 8, !tbaa !4
  %8 = call ptr @d2i_AutoPrivateKey_ex(ptr noundef null, ptr noundef %4, i64 noundef %6, ptr noundef %7, ptr noundef null)
  store ptr %8, ptr %2, align 8, !tbaa !13
  %9 = call i32 @test_ptr(ptr noundef @.str.28, i32 noundef 1220, ptr noundef @.str.182, ptr noundef %8)
  %10 = icmp ne i32 %9, 0
  br i1 %10, label %11, label %20

11:                                               ; preds = %0
  %12 = call i32 @EVP_PKEY_todata(ptr noundef null, i32 noundef 135, ptr noundef %1)
  %13 = call i32 @test_int_eq(ptr noundef @.str.28, i32 noundef 1221, ptr noundef @.str.183, ptr noundef @.str.69, i32 noundef %12, i32 noundef 0)
  %14 = icmp ne i32 %13, 0
  br i1 %14, label %15, label %20

15:                                               ; preds = %11
  %16 = load ptr, ptr %2, align 8, !tbaa !13
  %17 = call i32 @EVP_PKEY_todata(ptr noundef %16, i32 noundef 135, ptr noundef null)
  %18 = call i32 @test_int_eq(ptr noundef @.str.28, i32 noundef 1222, ptr noundef @.str.184, ptr noundef @.str.69, i32 noundef %17, i32 noundef 0)
  %19 = icmp ne i32 %18, 0
  br label %20

20:                                               ; preds = %15, %11, %0
  %21 = phi i1 [ false, %11 ], [ false, %0 ], [ %19, %15 ]
  %22 = zext i1 %21 to i32
  store i32 %22, ptr %3, align 4, !tbaa !11
  %23 = load ptr, ptr %2, align 8, !tbaa !13
  call void @EVP_PKEY_free(ptr noundef %23)
  %24 = load i32, ptr %3, align 4, !tbaa !11
  call void @llvm.lifetime.end.p0(i64 8, ptr %4) #7
  call void @llvm.lifetime.end.p0(i64 4, ptr %3) #7
  call void @llvm.lifetime.end.p0(i64 8, ptr %2) #7
  call void @llvm.lifetime.end.p0(i64 8, ptr %1) #7
  ret i32 %24
}