; Function Attrs: nounwind uwtable
define internal range(i32 0, 2) i32 @test_pkey_todata_null() #0 {
  %1 = alloca ptr, align 8
  %2 = alloca ptr, align 8
  call void @llvm.lifetime.start.p0(i64 8, ptr nonnull %1) #7
  store ptr null, ptr %1, align 8, !tbaa !20
  call void @llvm.lifetime.start.p0(i64 8, ptr nonnull %2) #7
  store ptr @kExampleRSAKeyDER, ptr %2, align 8, !tbaa !18
  %3 = load ptr, ptr @mainctx, align 8, !tbaa !4
  %4 = call ptr @d2i_AutoPrivateKey_ex(ptr noundef null, ptr noundef nonnull %2, i64 noundef 608, ptr noundef %3, ptr noundef null) #7
  %5 = call i32 @test_ptr(ptr noundef nonnull @.str.28, i32 noundef 1220, ptr noundef nonnull @.str.182, ptr noundef %4) #7
  %.not = icmp eq i32 %5, 0
  br i1 %.not, label %14, label %6

6:                                                ; preds = %0
  %7 = call i32 @EVP_PKEY_todata(ptr noundef null, i32 noundef 135, ptr noundef nonnull %1) #7
  %8 = call i32 @test_int_eq(ptr noundef nonnull @.str.28, i32 noundef 1221, ptr noundef nonnull @.str.183, ptr noundef nonnull @.str.69, i32 noundef %7, i32 noundef 0) #7
  %.not2 = icmp eq i32 %8, 0
  br i1 %.not2, label %14, label %9

9:                                                ; preds = %6
  %10 = call i32 @EVP_PKEY_todata(ptr noundef %4, i32 noundef 135, ptr noundef null) #7
  %11 = call i32 @test_int_eq(ptr noundef nonnull @.str.28, i32 noundef 1222, ptr noundef nonnull @.str.184, ptr noundef nonnull @.str.69, i32 noundef %10, i32 noundef 0) #7
  %12 = icmp ne i32 %11, 0
  %13 = zext i1 %12 to i32
  br label %14

14:                                               ; preds = %9, %6, %0
  %15 = phi i32 [ 0, %6 ], [ 0, %0 ], [ %13, %9 ]
  call void @EVP_PKEY_free(ptr noundef %4) #7
  call void @llvm.lifetime.end.p0(i64 8, ptr nonnull %2) #7
  call void @llvm.lifetime.end.p0(i64 8, ptr nonnull %1) #7
  ret i32 %15
}